target datalayout = "e-m:e-p270:32:32-p271:32:32-p272:64:64-i64:64-i128:128-f80:128-n8:16:32:64-S128"
target triple = "x86_64-pc-linux-gnu"

%struct.AVTXContext = type { i32, i32, ptr, ptr, ptr, ptr, [4 x ptr], i32, [4 x ptr], ptr, i32, i64, i32, float, double, ptr }

; Function Attrs: nounwind uwtable
define internal void @ff_tx_mdct_inv_full_int32_c(ptr noundef %0, ptr noundef %1, ptr noundef %2, i64 noundef %3) #4 {
  %5 = alloca ptr, align 8
  %6 = alloca ptr, align 8
  %7 = alloca ptr, align 8
  %8 = alloca i64, align 8
  %9 = alloca i32, align 4
  %10 = alloca i32, align 4
  %11 = alloca i32, align 4
  %12 = alloca ptr, align 8
  %13 = alloca i32, align 4
  store ptr %0, ptr %5, align 8, !tbaa !17
  store ptr %1, ptr %6, align 8, !tbaa !8
  store ptr %2, ptr %7, align 8, !tbaa !8
  store i64 %3, ptr %8, align 8, !tbaa !30
  call void @llvm.lifetime.start.p0(i64 4, ptr %9) #10
  %14 = load ptr, ptr %5, align 8, !tbaa !17
  %15 = getelementptr inbounds nuw %struct.AVTXContext, ptr %14, i32 0, i32 0
  %16 = load i32, ptr %15, align 8, !tbaa !21
  %17 = shl i32 %16, 1
  store i32 %17, ptr %9, align 4, !tbaa !4
  call void @llvm.lifetime.start.p0(i64 4, ptr %10) #10
  %18 = load i32, ptr %9, align 4, !tbaa !4
  %19 = ashr i32 %18, 1
  store i32 %19, ptr %10, align 4, !tbaa !4
  call void @llvm.lifetime.start.p0(i64 4, ptr %11) #10
  %20 = load i32, ptr %9, align 4, !tbaa !4
  %21 = ashr i32 %20, 2
  store i32 %21, ptr %11, align 4, !tbaa !4
  call void @llvm.lifetime.start.p0(i64 8, ptr %12) #10
  %22 = load ptr, ptr %6, align 8, !tbaa !8
  store ptr %22, ptr %12, align 8, !tbaa !19
  %23 = load ptr, ptr %5, align 8, !tbaa !17
  %24 = getelementptr inbounds nuw %struct.AVTXContext, ptr %23, i32 0, i32 6
  %25 = getelementptr inbounds [4 x ptr], ptr %24, i64 0, i64 0
  %26 = load ptr, ptr %25, align 8, !tbaa !8
  %27 = load ptr, ptr %5, align 8, !tbaa !17
  %28 = getelementptr inbounds nuw %struct.AVTXContext, ptr %27, i32 0, i32 5
  %29 = load ptr, ptr %28, align 8, !tbaa !65
  %30 = getelementptr inbounds %struct.AVTXContext, ptr %29, i64 0
  %31 = load ptr, ptr %12, align 8, !tbaa !19
  %32 = load i32, ptr %11, align 4, !tbaa !4
  %33 = sext i32 %32 to i64
  %34 = getelementptr inbounds i32, ptr %31, i64 %33
  %35 = load ptr, ptr %7, align 8, !tbaa !8
  %36 = load i64, ptr %8, align 8, !tbaa !30
  call void %26(ptr noundef %30, ptr noundef %34, ptr noundef %35, i64 noundef %36)
  %37 = load i64, ptr %8, align 8, !tbaa !30
  %38 = udiv i64 %37, 4
  store i64 %38, ptr %8, align 8, !tbaa !30
  call void @llvm.lifetime.start.p0(i64 4, ptr %13) #10
  store i32 0, ptr %13, align 4, !tbaa !4
  br label %39

39:                                               ; preds = %81, %4
  %40 = load i32, ptr %13, align 4, !tbaa !4
  %41 = load i32, ptr %11, align 4, !tbaa !4
  %42 = icmp slt i32 %40, %41
  br i1 %42, label %44, label %43

43:                                               ; preds = %39
  call void @llvm.lifetime.end.p0(i64 4, ptr %13) #10
  br label %84

44:                                               ; preds = %39
  %45 = load ptr, ptr %12, align 8, !tbaa !19
  %46 = load i32, ptr %10, align 4, !tbaa !4
  %47 = load i32, ptr %13, align 4, !tbaa !4
  %48 = sub nsw i32 %46, %47
  %49 = sub nsw i32 %48, 1
  %50 = sext i32 %49 to i64
  %51 = load i64, ptr %8, align 8, !tbaa !30
  %52 = mul nsw i64 %50, %51
  %53 = getelementptr inbounds i32, ptr %45, i64 %52
  %54 = load i32, ptr %53, align 4, !tbaa !4
  %55 = sub nsw i32 0, %54
  %56 = load ptr, ptr %12, align 8, !tbaa !19
  %57 = load i32, ptr %13, align 4, !tbaa !4
  %58 = sext i32 %57 to i64
  %59 = load i64, ptr %8, align 8, !tbaa !30
  %60 = mul nsw i64 %58, %59
  %61 = getelementptr inbounds i32, ptr %56, i64 %60
  store i32 %55, ptr %61, align 4, !tbaa !4
  %62 = load ptr, ptr %12, align 8, !tbaa !19
  %63 = load i32, ptr %10, align 4, !tbaa !4
  %64 = load i32, ptr %13, align 4, !tbaa !4
  %65 = add nsw i32 %63, %64
  %66 = add nsw i32 %65, 0
  %67 = sext i32 %66 to i64
  %68 = load i64, ptr %8, align 8, !tbaa !30
  %69 = mul nsw i64 %67, %68
  %70 = getelementptr inbounds i32, ptr %62, i64 %69
  %71 = load i32, ptr %70, align 4, !tbaa !4
  %72 = load ptr, ptr %12, align 8, !tbaa !19
  %73 = load i32, ptr %9, align 4, !tbaa !4
  %74 = load i32, ptr %13, align 4, !tbaa !4
  %75 = sub nsw i32 %73, %74
  %76 = sub nsw i32 %75, 1
  %77 = sext i32 %76 to i64
  %78 = load i64, ptr %8, align 8, !tbaa !30
  %79 = mul nsw i64 %77, %78
  %80 = getelementptr inbounds i32, ptr %72, i64 %79
  store i32 %71, ptr %80, align 4, !tbaa !4
  br label %81

81:                                               ; preds = %44
  %82 = load i32, ptr %13, align 4, !tbaa !4
  %83 = add nsw i32 %82, 1
  store i32 %83, ptr %13, align 4, !tbaa !4
  br label %39, !llvm.loop !145

84:                                               ; preds = %43
  call void @llvm.lifetime.end.p0(i64 8, ptr %12) #10
  call void @llvm.lifetime.end.p0(i64 4, ptr %11) #10
  call void @llvm.lifetime.end.p0(i64 4, ptr %10) #10
  call void @llvm.lifetime.end.p0(i64 4, ptr %9) #10
  ret void
}